target datalayout = "e-m:e-p270:32:32-p271:32:32-p272:64:64-i64:64-i128:128-f80:128-n8:16:32:64-S128"
target triple = "x86_64-pc-linux-gnu"

%"class.clang::StandardConversionSequence" = type { i64, ptr, [3 x ptr], ptr, %"class.clang::DeclAccessPair" }
%"class.clang::DeclAccessPair" = type { %"struct.llvm::support::detail::packed_endian_specific_integral" }
%"struct.llvm::support::detail::packed_endian_specific_integral" = type { %struct.anon }
%struct.anon = type { [8 x i8] }
%"class.clang::QualType" = type { %"class.llvm::PointerIntPair" }
%"class.llvm::PointerIntPair" = type { %"struct.llvm::detail::PunnedPointer" }
%"struct.llvm::detail::PunnedPointer" = type { [8 x i8] }
%"struct.clang::UserDefinedConversionSequence" = type { %"class.clang::StandardConversionSequence", i8, %"class.clang::StandardConversionSequence", ptr, %"class.clang::DeclAccessPair" }
%"class.clang::ImplicitConversionSequence" = type { i32, [4 x i8], %"class.clang::QualType", %union.anon.415 }
%union.anon.415 = type { %"struct.clang::UserDefinedConversionSequence" }
%"struct.(anonymous namespace)::CompareOverloadCandidatesForDisplay::ConversionSignals" = type { i32, i32 }

; Function Attrs: mustprogress nounwind uwtable
define dso_local noundef i32 @_ZN5clang26GetDimensionConversionRankENS_22ImplicitConversionRankENS_22ImplicitConversionKindE(i32 noundef %0, i32 noundef %1) #0 {
  %3 = alloca i32, align 4
  %4 = alloca i32, align 4
  %5 = alloca i32, align 4
  %6 = alloca i32, align 4
  store i32 %0, ptr %4, align 4
  store i32 %1, ptr %5, align 4
  %7 = load i32, ptr %5, align 4
  %8 = call noundef i32 @_ZN5clang17GetConversionRankENS_22ImplicitConversionKindE(i32 noundef %7)
  store i32 %8, ptr %6, align 4
  %9 = load i32, ptr %6, align 4
  %10 = icmp eq i32 %9, 1
  br i1 %10, label %11, label %20

11:                                               ; preds = %2
  %12 = load i32, ptr %4, align 4
  %13 = icmp eq i32 %12, 2
  br i1 %13, label %14, label %15

14:                                               ; preds = %11
  store i32 3, ptr %3, align 4
  br label %34

15:                                               ; preds = %11
  %16 = load i32, ptr %4, align 4
  %17 = icmp eq i32 %16, 5
  br i1 %17, label %18, label %19

18:                                               ; preds = %15
  store i32 7, ptr %3, align 4
  br label %34

19:                                               ; preds = %15
  br label %20

20:                                               ; preds = %19, %2
  %21 = load i32, ptr %6, align 4
  %22 = icmp eq i32 %21, 4
  br i1 %22, label %23, label %32

23:                                               ; preds = %20
  %24 = load i32, ptr %4, align 4
  %25 = icmp eq i32 %24, 2
  br i1 %25, label %26, label %27

26:                                               ; preds = %23
  store i32 12, ptr %3, align 4
  br label %34

27:                                               ; preds = %23
  %28 = load i32, ptr %4, align 4
  %29 = icmp eq i32 %28, 5
  br i1 %29, label %30, label %31

30:                                               ; preds = %27
  store i32 13, ptr %3, align 4
  br label %34

31:                                               ; preds = %27
  br label %32

32:                                               ; preds = %31, %20
  %33 = load i32, ptr %6, align 4
  store i32 %33, ptr %3, align 4
  br label %34

34:                                               ; preds = %32, %30, %26, %18, %14
  %35 = load i32, ptr %3, align 4
  ret i32 %35
}

; Function Attrs: mustprogress nounwind uwtable
define dso_local noundef i32 @_ZN5clang17GetConversionRankENS_22ImplicitConversionKindE(i32 noundef %0) #0 {
  %2 = alloca i32, align 4
  store i32 %0, ptr %2, align 4
  %3 = load i32, ptr %2, align 4
  %4 = sext i32 %3 to i64
  %5 = getelementptr inbounds [34 x i32], ptr @_ZZN5clang17GetConversionRankENS_22ImplicitConversionKindEE4Rank, i64 0, i64 %4
  %6 = load i32, ptr %5, align 4
  ret i32 %6
}

; Function Attrs: mustprogress nounwind uwtable
define linkonce_odr hidden noundef i32 @_ZNK5clang26ImplicitConversionSequence7getKindEv(ptr noundef nonnull align 8 dereferenceable(152) %0) #0 comdat align 2 {
  %2 = alloca ptr, align 8
  store ptr %0, ptr %2, align 8
  %3 = load ptr, ptr %2, align 8
  %4 = load i32, ptr %3, align 8
  %5 = and i32 %4, 2147483647
  ret i32 %5
}

; Function Attrs: mustprogress nounwind uwtable
define linkonce_odr hidden noundef zeroext i1 @_ZNK5clang26ImplicitConversionSequence13isUserDefinedEv(ptr noundef nonnull align 8 dereferenceable(152) %0) #0 comdat align 2 {
  %2 = alloca ptr, align 8
  store ptr %0, ptr %2, align 8
  %3 = load ptr, ptr %2, align 8
  %4 = call noundef i32 @_ZNK5clang26ImplicitConversionSequence7getKindEv(ptr noundef nonnull align 8 dereferenceable(152) %3)
  %5 = icmp eq i32 %4, 2
  ret i1 %5
}

; Function Attrs: mustprogress nounwind uwtable
define dso_local noundef i32 @_ZNK5clang26StandardConversionSequence7getRankEv(ptr noundef nonnull align 8 dereferenceable(56) %0) #0 align 2 {
  %2 = alloca ptr, align 8
  %3 = alloca i32, align 4
  store ptr %0, ptr %2, align 8
  %4 = load ptr, ptr %2, align 8
  store i32 0, ptr %3, align 4
  %5 = load i64, ptr %4, align 8
  %6 = and i64 %5, 255
  %7 = trunc i64 %6 to i32
  %8 = call noundef i32 @_ZN5clang17GetConversionRankENS_22ImplicitConversionKindE(i32 noundef %7)
  %9 = load i32, ptr %3, align 4
  %10 = icmp sgt i32 %8, %9
  br i1 %10, label %11, label %16

11:                                               ; preds = %1
  %12 = load i64, ptr %4, align 8
  %13 = and i64 %12, 255
  %14 = trunc i64 %13 to i32
  %15 = call noundef i32 @_ZN5clang17GetConversionRankENS_22ImplicitConversionKindE(i32 noundef %14)
  store i32 %15, ptr %3, align 4
  br label %16

16:                                               ; preds = %11, %1
  %17 = load i64, ptr %4, align 8
  %18 = lshr i64 %17, 8
  %19 = and i64 %18, 255
  %20 = trunc i64 %19 to i32
  %21 = call noundef i32 @_ZN5clang17GetConversionRankENS_22ImplicitConversionKindE(i32 noundef %20)
  %22 = load i32, ptr %3, align 4
  %23 = icmp sgt i32 %21, %22
  br i1 %23, label %24, label %30

24:                                               ; preds = %16
  %25 = load i64, ptr %4, align 8
  %26 = lshr i64 %25, 8
  %27 = and i64 %26, 255
  %28 = trunc i64 %27 to i32
  %29 = call noundef i32 @_ZN5clang17GetConversionRankENS_22ImplicitConversionKindE(i32 noundef %28)
  store i32 %29, ptr %3, align 4
  br label %30

30:                                               ; preds = %24, %16
  %31 = load i32, ptr %3, align 4
  %32 = load i64, ptr %4, align 8
  %33 = lshr i64 %32, 16
  %34 = and i64 %33, 255
  %35 = trunc i64 %34 to i32
  %36 = call noundef i32 @_ZN5clang26GetDimensionConversionRankENS_22ImplicitConversionRankENS_22ImplicitConversionKindE(i32 noundef %31, i32 noundef %35)
  %37 = load i32, ptr %3, align 4
  %38 = icmp sgt i32 %36, %37
  br i1 %38, label %39, label %46

39:                                               ; preds = %30
  %40 = load i32, ptr %3, align 4
  %41 = load i64, ptr %4, align 8
  %42 = lshr i64 %41, 16
  %43 = and i64 %42, 255
  %44 = trunc i64 %43 to i32
  %45 = call noundef i32 @_ZN5clang26GetDimensionConversionRankENS_22ImplicitConversionRankENS_22ImplicitConversionKindE(i32 noundef %40, i32 noundef %44)
  store i32 %45, ptr %3, align 4
  br label %46

46:                                               ; preds = %39, %30
  %47 = load i64, ptr %4, align 8
  %48 = lshr i64 %47, 24
  %49 = and i64 %48, 255
  %50 = trunc i64 %49 to i32
  %51 = call noundef i32 @_ZN5clang17GetConversionRankENS_22ImplicitConversionKindE(i32 noundef %50)
  %52 = load i32, ptr %3, align 4
  %53 = icmp sgt i32 %51, %52
  br i1 %53, label %54, label %60

54:                                               ; preds = %46
  %55 = load i64, ptr %4, align 8
  %56 = lshr i64 %55, 24
  %57 = and i64 %56, 255
  %58 = trunc i64 %57 to i32
  %59 = call noundef i32 @_ZN5clang17GetConversionRankENS_22ImplicitConversionKindE(i32 noundef %58)
  store i32 %59, ptr %3, align 4
  br label %60

60:                                               ; preds = %54, %46
  %61 = load i32, ptr %3, align 4
  ret i32 %61
}

; Function Attrs: mustprogress nounwind uwtable
define linkonce_odr hidden noundef zeroext i1 @_ZNK5clang26ImplicitConversionSequence10isStandardEv(ptr noundef nonnull align 8 dereferenceable(152) %0) #0 comdat align 2 {
  %2 = alloca ptr, align 8
  store ptr %0, ptr %2, align 8
  %3 = load ptr, ptr %2, align 8
  %4 = call noundef i32 @_ZNK5clang26ImplicitConversionSequence7getKindEv(ptr noundef nonnull align 8 dereferenceable(152) %3)
  %5 = icmp eq i32 %4, 0
  ret i1 %5
}

; Function Attrs: mustprogress nounwind uwtable
define linkonce_odr hidden noundef i32 @_ZNK5clang26ImplicitConversionSequence11getKindRankEv(ptr noundef nonnull align 8 dereferenceable(152) %0) #0 comdat align 2 {
  %2 = alloca i32, align 4
  %3 = alloca ptr, align 8
  store ptr %0, ptr %3, align 8
  %4 = load ptr, ptr %3, align 8
  %5 = call noundef i32 @_ZNK5clang26ImplicitConversionSequence7getKindEv(ptr noundef nonnull align 8 dereferenceable(152) %4)
  switch i32 %5, label %10 [
    i32 0, label %6
    i32 1, label %6
    i32 2, label %7
    i32 3, label %7
    i32 4, label %8
    i32 5, label %9
  ]

6:                                                ; preds = %1, %1
  store i32 0, ptr %2, align 4
  br label %11

7:                                                ; preds = %1, %1
  store i32 1, ptr %2, align 4
  br label %11

8:                                                ; preds = %1
  store i32 2, ptr %2, align 4
  br label %11

9:                                                ; preds = %1
  store i32 3, ptr %2, align 4
  br label %11

10:                                               ; preds = %1
  unreachable

11:                                               ; preds = %9, %8, %7, %6
  %12 = load i32, ptr %2, align 4
  ret i32 %12
}

; Function Attrs: mustprogress nounwind uwtable
define internal void @_ZN12_GLOBAL__N_135CompareOverloadCandidatesForDisplay17ConversionSignalsC2Ev(ptr noundef nonnull align 4 dereferenceable(8) %0) unnamed_addr #0 align 2 {
  %2 = alloca ptr, align 8
  store ptr %0, ptr %2, align 8
  %3 = load ptr, ptr %2, align 8
  %4 = getelementptr inbounds nuw %"struct.(anonymous namespace)::CompareOverloadCandidatesForDisplay::ConversionSignals", ptr %3, i32 0, i32 0
  store i32 0, ptr %4, align 4
  %5 = getelementptr inbounds nuw %"struct.(anonymous namespace)::CompareOverloadCandidatesForDisplay::ConversionSignals", ptr %3, i32 0, i32 1
  store i32 0, ptr %5, align 4
  ret void
}

; Function Attrs: mustprogress nounwind uwtable
define internal i64 @_ZN12_GLOBAL__N_135CompareOverloadCandidatesForDisplay17ConversionSignals11ForSequenceERN5clang26ImplicitConversionSequenceE(ptr noundef nonnull align 8 dereferenceable(152) %0) #0 align 2 {
  %2 = alloca %"struct.(anonymous namespace)::CompareOverloadCandidatesForDisplay::ConversionSignals", align 4
  %3 = alloca ptr, align 8
  store ptr %0, ptr %3, align 8
  call void @_ZN12_GLOBAL__N_135CompareOverloadCandidatesForDisplay17ConversionSignalsC2Ev(ptr noundef nonnull align 4 dereferenceable(8) %2) #16
  %4 = load ptr, ptr %3, align 8
  %5 = call noundef i32 @_ZNK5clang26ImplicitConversionSequence11getKindRankEv(ptr noundef nonnull align 8 dereferenceable(152) %4)
  %6 = getelementptr inbounds nuw %"struct.(anonymous namespace)::CompareOverloadCandidatesForDisplay::ConversionSignals", ptr %2, i32 0, i32 0
  store i32 %5, ptr %6, align 4
  %7 = load ptr, ptr %3, align 8
  %8 = call noundef zeroext i1 @_ZNK5clang26ImplicitConversionSequence10isStandardEv(ptr noundef nonnull align 8 dereferenceable(152) %7)
  br i1 %8, label %9, label %14

9:                                                ; preds = %1
  %10 = load ptr, ptr %3, align 8
  %11 = getelementptr inbounds nuw %"class.clang::ImplicitConversionSequence", ptr %10, i32 0, i32 3
  %12 = call noundef i32 @_ZNK5clang26StandardConversionSequence7getRankEv(ptr noundef nonnull align 8 dereferenceable(56) %11)
  %13 = getelementptr inbounds nuw %"struct.(anonymous namespace)::CompareOverloadCandidatesForDisplay::ConversionSignals", ptr %2, i32 0, i32 1
  store i32 %12, ptr %13, align 4
  br label %24

14:                                               ; preds = %1
  %15 = load ptr, ptr %3, align 8
  %16 = call noundef zeroext i1 @_ZNK5clang26ImplicitConversionSequence13isUserDefinedEv(ptr noundef nonnull align 8 dereferenceable(152) %15)
  br i1 %16, label %17, label %23

17:                                               ; preds = %14
  %18 = load ptr, ptr %3, align 8
  %19 = getelementptr inbounds nuw %"class.clang::ImplicitConversionSequence", ptr %18, i32 0, i32 3
  %20 = getelementptr inbounds nuw %"struct.clang::UserDefinedConversionSequence", ptr %19, i32 0, i32 2
  %21 = call noundef i32 @_ZNK5clang26StandardConversionSequence7getRankEv(ptr noundef nonnull align 8 dereferenceable(56) %20)
  %22 = getelementptr inbounds nuw %"struct.(anonymous namespace)::CompareOverloadCandidatesForDisplay::ConversionSignals", ptr %2, i32 0, i32 1
  store i32 %21, ptr %22, align 4
  br label %23

23:                                               ; preds = %17, %14
  br label %24

24:                                               ; preds = %23, %9
  %25 = load i64, ptr %2, align 4
  ret i64 %25
}