; Function Attrs: mustprogress nofree norecurse nosync nounwind willreturn memory(argmem: read) uwtable
define internal fastcc i64 @_ZN12_GLOBAL__N_135CompareOverloadCandidatesForDisplay17ConversionSignals11ForSequenceERN5clang26ImplicitConversionSequenceE(ptr nocapture noundef nonnull readonly align 8 dereferenceable(152) %0) unnamed_addr #2 align 2 {
  %2 = load i32, ptr %0, align 8
  %3 = and i32 %2, 2147483647
  switch i32 %3, label %5 [
    i32 5, label %4
    i32 4, label %.thread
    i32 1, label %.thread.fold.split
    i32 0, label %6
    i32 2, label %36
    i32 3, label %.thread.fold.split18
  ]

4:                                                ; preds = %1
  br label %.thread

5:                                                ; preds = %1
  unreachable

6:                                                ; preds = %1
  %7 = getelementptr inbounds nuw i8, ptr %0, i64 16
  %8 = load i64, ptr %7, align 8
  %9 = and i64 %8, 255
  %10 = getelementptr inbounds [34 x i32], ptr @_ZZN5clang17GetConversionRankENS_22ImplicitConversionKindEE4Rank, i64 0, i64 %9
  %11 = load i32, ptr %10, align 4
  %12 = lshr i64 %8, 8
  %13 = and i64 %12, 255
  %14 = getelementptr inbounds [34 x i32], ptr @_ZZN5clang17GetConversionRankENS_22ImplicitConversionKindEE4Rank, i64 0, i64 %13
  %15 = load i32, ptr %14, align 4
  %spec.select.i = tail call i32 @llvm.smax.i32(i32 %11, i32 %15)
  %.1.i = tail call i32 @llvm.smax.i32(i32 %spec.select.i, i32 0)
  %16 = lshr i64 %8, 16
  %17 = and i64 %16, 255
  %18 = getelementptr inbounds [34 x i32], ptr @_ZZN5clang17GetConversionRankENS_22ImplicitConversionKindEE4Rank, i64 0, i64 %17
  %19 = load i32, ptr %18, align 4
  switch i32 %19, label %24 [
    i32 1, label %20
    i32 4, label %22
  ]

20:                                               ; preds = %6
  switch i32 %.1.i, label %24 [
    i32 2, label %_ZN5clang26GetDimensionConversionRankENS_22ImplicitConversionRankENS_22ImplicitConversionKindE.exit.i
    i32 5, label %21
  ]

21:                                               ; preds = %20
  br label %_ZN5clang26GetDimensionConversionRankENS_22ImplicitConversionRankENS_22ImplicitConversionKindE.exit.i

22:                                               ; preds = %6
  switch i32 %.1.i, label %24 [
    i32 2, label %_ZN5clang26GetDimensionConversionRankENS_22ImplicitConversionRankENS_22ImplicitConversionKindE.exit.i
    i32 5, label %23
  ]

23:                                               ; preds = %22
  br label %_ZN5clang26GetDimensionConversionRankENS_22ImplicitConversionRankENS_22ImplicitConversionKindE.exit.i

24:                                               ; preds = %22, %20, %6
  br label %_ZN5clang26GetDimensionConversionRankENS_22ImplicitConversionRankENS_22ImplicitConversionKindE.exit.i

_ZN5clang26GetDimensionConversionRankENS_22ImplicitConversionRankENS_22ImplicitConversionKindE.exit.i: ; preds = %24, %23, %22, %21, %20
  %.0.i.i = phi i32 [ 7, %21 ], [ 13, %23 ], [ %19, %24 ], [ 3, %20 ], [ 12, %22 ]
  %25 = icmp sgt i32 %.0.i.i, %.1.i
  br i1 %25, label %26, label %_ZNK5clang26StandardConversionSequence7getRankEv.exit

26:                                               ; preds = %_ZN5clang26GetDimensionConversionRankENS_22ImplicitConversionRankENS_22ImplicitConversionKindE.exit.i
  switch i32 %19, label %31 [
    i32 1, label %27
    i32 4, label %29
  ]

27:                                               ; preds = %26
  switch i32 %.1.i, label %31 [
    i32 2, label %_ZNK5clang26StandardConversionSequence7getRankEv.exit
    i32 5, label %28
  ]

28:                                               ; preds = %27
  br label %_ZNK5clang26StandardConversionSequence7getRankEv.exit

29:                                               ; preds = %26
  switch i32 %.1.i, label %31 [
    i32 2, label %_ZNK5clang26StandardConversionSequence7getRankEv.exit
    i32 5, label %30
  ]

30:                                               ; preds = %29
  br label %_ZNK5clang26StandardConversionSequence7getRankEv.exit

31:                                               ; preds = %29, %27, %26
  br label %_ZNK5clang26StandardConversionSequence7getRankEv.exit

_ZNK5clang26StandardConversionSequence7getRankEv.exit: ; preds = %_ZN5clang26GetDimensionConversionRankENS_22ImplicitConversionRankENS_22ImplicitConversionKindE.exit.i, %27, %28, %29, %30, %31
  %.2.i = phi i32 [ %.1.i, %_ZN5clang26GetDimensionConversionRankENS_22ImplicitConversionRankENS_22ImplicitConversionKindE.exit.i ], [ 7, %28 ], [ 13, %30 ], [ %19, %31 ], [ 3, %27 ], [ 12, %29 ]
  %32 = lshr i64 %8, 24
  %33 = and i64 %32, 255
  %34 = getelementptr inbounds [34 x i32], ptr @_ZZN5clang17GetConversionRankENS_22ImplicitConversionKindEE4Rank, i64 0, i64 %33
  %35 = load i32, ptr %34, align 4
  %spec.select9.i = tail call noundef i32 @llvm.smax.i32(i32 %35, i32 %.2.i)
  br label %.thread

36:                                               ; preds = %1
  %37 = getelementptr inbounds i8, ptr %0, i64 80
  %38 = load i64, ptr %37, align 8
  %39 = and i64 %38, 255
  %40 = getelementptr inbounds [34 x i32], ptr @_ZZN5clang17GetConversionRankENS_22ImplicitConversionKindEE4Rank, i64 0, i64 %39
  %41 = load i32, ptr %40, align 4
  %42 = lshr i64 %38, 8
  %43 = and i64 %42, 255
  %44 = getelementptr inbounds [34 x i32], ptr @_ZZN5clang17GetConversionRankENS_22ImplicitConversionKindEE4Rank, i64 0, i64 %43
  %45 = load i32, ptr %44, align 4
  %spec.select.i5 = tail call i32 @llvm.smax.i32(i32 %41, i32 %45)
  %.1.i6 = tail call i32 @llvm.smax.i32(i32 %spec.select.i5, i32 0)
  %46 = lshr i64 %38, 16
  %47 = and i64 %46, 255
  %48 = getelementptr inbounds [34 x i32], ptr @_ZZN5clang17GetConversionRankENS_22ImplicitConversionKindEE4Rank, i64 0, i64 %47
  %49 = load i32, ptr %48, align 4
  switch i32 %49, label %54 [
    i32 1, label %50
    i32 4, label %52
  ]

50:                                               ; preds = %36
  switch i32 %.1.i6, label %54 [
    i32 2, label %_ZN5clang26GetDimensionConversionRankENS_22ImplicitConversionRankENS_22ImplicitConversionKindE.exit.i7
    i32 5, label %51
  ]

51:                                               ; preds = %50
  br label %_ZN5clang26GetDimensionConversionRankENS_22ImplicitConversionRankENS_22ImplicitConversionKindE.exit.i7

52:                                               ; preds = %36
  switch i32 %.1.i6, label %54 [
    i32 2, label %_ZN5clang26GetDimensionConversionRankENS_22ImplicitConversionRankENS_22ImplicitConversionKindE.exit.i7
    i32 5, label %53
  ]

53:                                               ; preds = %52
  br label %_ZN5clang26GetDimensionConversionRankENS_22ImplicitConversionRankENS_22ImplicitConversionKindE.exit.i7

54:                                               ; preds = %52, %50, %36
  br label %_ZN5clang26GetDimensionConversionRankENS_22ImplicitConversionRankENS_22ImplicitConversionKindE.exit.i7

_ZN5clang26GetDimensionConversionRankENS_22ImplicitConversionRankENS_22ImplicitConversionKindE.exit.i7: ; preds = %54, %53, %52, %51, %50
  %.0.i.i8 = phi i32 [ 7, %51 ], [ 13, %53 ], [ %49, %54 ], [ 3, %50 ], [ 12, %52 ]
  %55 = icmp sgt i32 %.0.i.i8, %.1.i6
  br i1 %55, label %56, label %_ZNK5clang26StandardConversionSequence7getRankEv.exit11

56:                                               ; preds = %_ZN5clang26GetDimensionConversionRankENS_22ImplicitConversionRankENS_22ImplicitConversionKindE.exit.i7
  switch i32 %49, label %61 [
    i32 1, label %57
    i32 4, label %59
  ]

57:                                               ; preds = %56
  switch i32 %.1.i6, label %61 [
    i32 2, label %_ZNK5clang26StandardConversionSequence7getRankEv.exit11
    i32 5, label %58
  ]

58:                                               ; preds = %57
  br label %_ZNK5clang26StandardConversionSequence7getRankEv.exit11

59:                                               ; preds = %56
  switch i32 %.1.i6, label %61 [
    i32 2, label %_ZNK5clang26StandardConversionSequence7getRankEv.exit11
    i32 5, label %60
  ]

60:                                               ; preds = %59
  br label %_ZNK5clang26StandardConversionSequence7getRankEv.exit11

61:                                               ; preds = %59, %57, %56
  br label %_ZNK5clang26StandardConversionSequence7getRankEv.exit11

_ZNK5clang26StandardConversionSequence7getRankEv.exit11: ; preds = %_ZN5clang26GetDimensionConversionRankENS_22ImplicitConversionRankENS_22ImplicitConversionKindE.exit.i7, %57, %58, %59, %60, %61
  %.2.i9 = phi i32 [ %.1.i6, %_ZN5clang26GetDimensionConversionRankENS_22ImplicitConversionRankENS_22ImplicitConversionKindE.exit.i7 ], [ 7, %58 ], [ 13, %60 ], [ %49, %61 ], [ 3, %57 ], [ 12, %59 ]
  %62 = lshr i64 %38, 24
  %63 = and i64 %62, 255
  %64 = getelementptr inbounds [34 x i32], ptr @_ZZN5clang17GetConversionRankENS_22ImplicitConversionKindEE4Rank, i64 0, i64 %63
  %65 = load i32, ptr %64, align 4
  %spec.select9.i10 = tail call noundef i32 @llvm.smax.i32(i32 %65, i32 %.2.i9)
  br label %.thread

.thread.fold.split:                               ; preds = %1
  br label %.thread

.thread.fold.split18:                             ; preds = %1
  br label %.thread

.thread:                                          ; preds = %1, %.thread.fold.split18, %.thread.fold.split, %4, %_ZNK5clang26StandardConversionSequence7getRankEv.exit11, %_ZNK5clang26StandardConversionSequence7getRankEv.exit
  %.0.i13 = phi i64 [ 0, %_ZNK5clang26StandardConversionSequence7getRankEv.exit ], [ 1, %_ZNK5clang26StandardConversionSequence7getRankEv.exit11 ], [ 3, %4 ], [ 2, %1 ], [ 0, %.thread.fold.split ], [ 1, %.thread.fold.split18 ]
  %.sroa.3.0 = phi i32 [ %spec.select9.i, %_ZNK5clang26StandardConversionSequence7getRankEv.exit ], [ %spec.select9.i10, %_ZNK5clang26StandardConversionSequence7getRankEv.exit11 ], [ 0, %4 ], [ 0, %1 ], [ 0, %.thread.fold.split ], [ 0, %.thread.fold.split18 ]
  %.sroa.3.0.insert.ext = zext i32 %.sroa.3.0 to i64
  %.sroa.3.0.insert.shift = shl nuw i64 %.sroa.3.0.insert.ext, 32
  %.sroa.0.0.insert.insert = or disjoint i64 %.sroa.3.0.insert.shift, %.0.i13
  ret i64 %.sroa.0.0.insert.insert
}